target datalayout = "e-m:e-p270:32:32-p271:32:32-p272:64:64-i64:64-i128:128-f80:128-n8:16:32:64-S128"
target triple = "x86_64-unknown-linux-gnu"

%union.pthread_mutex_t = type { %struct.__pthread_mutex_s }
%struct.__pthread_mutex_s = type { i32, i32, i32, i32, i32, i16, i16, %struct.__pthread_internal_list }
%struct.__pthread_internal_list = type { ptr, ptr }
%"class.std::__cxx11::basic_string" = type { %"struct.std::__cxx11::basic_string<char>::_Alloc_hider", i64, %union.anon.0 }
%"struct.std::__cxx11::basic_string<char>::_Alloc_hider" = type { ptr }
%union.anon.0 = type { i64, [8 x i8] }
%"class.OpenImageIO_v2_6_0::Filesystem::IOProxy" = type { ptr, %"class.std::__cxx11::basic_string", i64, i32, %"class.std::__cxx11::basic_string" }
%"class.OpenImageIO_v2_6_0::Filesystem::IOFile" = type { %"class.OpenImageIO_v2_6_0::Filesystem::IOProxy", ptr, i64, i8, %"class.std::mutex" }
%"class.std::mutex" = type { %"class.std::__mutex_base" }
%"class.std::__mutex_base" = type { %union.pthread_mutex_t }

; Function Attrs: mustprogress uwtable
define noundef i64 @_ZN18OpenImageIO_v2_6_010Filesystem6IOFile5writeEPKvm(ptr noundef nonnull align 8 dereferenceable(152) %this, ptr noundef %buf, i64 noundef %size) unnamed_addr #6 align 2 {
entry:
  %retval = alloca i64, align 8
  %this.addr = alloca ptr, align 8
  %buf.addr = alloca ptr, align 8
  %size.addr = alloca i64, align 8
  %r = alloca i64, align 8
  store ptr %this, ptr %this.addr, align 8
  store ptr %buf, ptr %buf.addr, align 8
  store i64 %size, ptr %size.addr, align 8
  %this1 = load ptr, ptr %this.addr, align 8
  %m_file = getelementptr inbounds %"class.OpenImageIO_v2_6_0::Filesystem::IOFile", ptr %this1, i32 0, i32 1
  %0 = load ptr, ptr %m_file, align 8
  %tobool = icmp ne ptr %0, null
  br i1 %tobool, label %lor.lhs.false, label %if.then

lor.lhs.false:                                    ; preds = %entry
  %1 = load i64, ptr %size.addr, align 8
  %tobool2 = icmp ne i64 %1, 0
  br i1 %tobool2, label %lor.lhs.false3, label %if.then

lor.lhs.false3:                                   ; preds = %lor.lhs.false
  %m_mode = getelementptr inbounds %"class.OpenImageIO_v2_6_0::Filesystem::IOProxy", ptr %this1, i32 0, i32 3
  %2 = load i32, ptr %m_mode, align 8
  %cmp = icmp ne i32 %2, 119
  br i1 %cmp, label %if.then, label %if.end

if.then:                                          ; preds = %lor.lhs.false3, %lor.lhs.false, %entry
  store i64 0, ptr %retval, align 8
  br label %return

if.end:                                           ; preds = %lor.lhs.false3
  %3 = load ptr, ptr %buf.addr, align 8
  %4 = load i64, ptr %size.addr, align 8
  %m_file4 = getelementptr inbounds %"class.OpenImageIO_v2_6_0::Filesystem::IOFile", ptr %this1, i32 0, i32 1
  %5 = load ptr, ptr %m_file4, align 8
  %call = call i64 @fwrite(ptr noundef %3, i64 noundef 1, i64 noundef %4, ptr noundef %5)
  store i64 %call, ptr %r, align 8
  %6 = load i64, ptr %r, align 8
  %m_pos = getelementptr inbounds %"class.OpenImageIO_v2_6_0::Filesystem::IOProxy", ptr %this1, i32 0, i32 2
  %7 = load i64, ptr %m_pos, align 8
  %add = add i64 %7, %6
  store i64 %add, ptr %m_pos, align 8
  %m_pos5 = getelementptr inbounds %"class.OpenImageIO_v2_6_0::Filesystem::IOProxy", ptr %this1, i32 0, i32 2
  %8 = load i64, ptr %m_pos5, align 8
  %m_size = getelementptr inbounds %"class.OpenImageIO_v2_6_0::Filesystem::IOFile", ptr %this1, i32 0, i32 2
  %9 = load i64, ptr %m_size, align 8
  %cmp6 = icmp sgt i64 %8, %9
  br i1 %cmp6, label %if.then7, label %if.end10

if.then7:                                         ; preds = %if.end
  %m_pos8 = getelementptr inbounds %"class.OpenImageIO_v2_6_0::Filesystem::IOProxy", ptr %this1, i32 0, i32 2
  %10 = load i64, ptr %m_pos8, align 8
  %m_size9 = getelementptr inbounds %"class.OpenImageIO_v2_6_0::Filesystem::IOFile", ptr %this1, i32 0, i32 2
  store i64 %10, ptr %m_size9, align 8
  br label %if.end10

if.end10:                                         ; preds = %if.then7, %if.end
  %11 = load i64, ptr %r, align 8
  store i64 %11, ptr %retval, align 8
  br label %return

return:                                           ; preds = %if.end10, %if.then
  %12 = load i64, ptr %retval, align 8
  ret i64 %12
}