; Function Attrs: mustprogress nofree nounwind uwtable
define noundef i64 @_ZN18OpenImageIO_v2_6_010Filesystem6IOFile5writeEPKvm(ptr nocapture noundef nonnull align 8 dereferenceable(152) %this, ptr nocapture noundef %buf, i64 noundef %size) unnamed_addr #10 align 2 {
entry:
  %m_file = getelementptr inbounds i8, ptr %this, i64 88
  %0 = load ptr, ptr %m_file, align 8
  %tobool = icmp ne ptr %0, null
  %tobool2 = icmp ne i64 %size, 0
  %or.cond = and i1 %tobool2, %tobool
  %m_mode = getelementptr inbounds i8, ptr %this, i64 48
  %1 = load i32, ptr %m_mode, align 8
  %cmp.not = icmp eq i32 %1, 119
  %or.cond3 = select i1 %or.cond, i1 %cmp.not, i1 false
  br i1 %or.cond3, label %if.end, label %return

if.end:                                           ; preds = %entry
  %call = tail call i64 @fwrite(ptr noundef %buf, i64 noundef 1, i64 noundef %size, ptr noundef nonnull %0)
  %m_pos = getelementptr inbounds i8, ptr %this, i64 40
  %2 = load i64, ptr %m_pos, align 8
  %add = add i64 %2, %call
  store i64 %add, ptr %m_pos, align 8
  %m_size = getelementptr inbounds i8, ptr %this, i64 96
  %3 = load i64, ptr %m_size, align 8
  %cmp6 = icmp sgt i64 %add, %3
  br i1 %cmp6, label %if.then7, label %return

if.then7:                                         ; preds = %if.end
  store i64 %add, ptr %m_size, align 8
  br label %return

return:                                           ; preds = %if.end, %if.then7, %entry
  %retval.0 = phi i64 [ 0, %entry ], [ %call, %if.then7 ], [ %call, %if.end ]
  ret i64 %retval.0
}